; Function Attrs: mustprogress nounwind uwtable
define internal void @_ZN4node12_GLOBAL__N_120BrotliEncoderContextD0Ev(ptr noundef nonnull align 8 dereferenceable(96) %this) unnamed_addr #3 align 2 {
entry:
  %state_.i = getelementptr inbounds i8, ptr %this, i64 88
  %0 = load ptr, ptr %state_.i, align 8
  %cmp.not.i.i = icmp eq ptr %0, null
  br i1 %cmp.not.i.i, label %_ZN4node12_GLOBAL__N_120BrotliEncoderContextD2Ev.exit, label %if.then.i.i

if.then.i.i:                                      ; preds = %entry
  tail call void @BrotliEncoderDestroyInstance(ptr noundef nonnull %0) #22
  br label %_ZN4node12_GLOBAL__N_120BrotliEncoderContextD2Ev.exit

_ZN4node12_GLOBAL__N_120BrotliEncoderContextD2Ev.exit: ; preds = %entry, %if.then.i.i
  tail call void @_ZdlPv(ptr noundef nonnull %this) #25
  ret void
}